target datalayout = "e-m:e-p270:32:32-p271:32:32-p272:64:64-i64:64-i128:128-f80:128-n8:16:32:64-S128"
target triple = "x86_64-pc-linux-gnu"

%struct.ReplicationSlotCtlData = type { [1 x %struct.ReplicationSlot] }
%struct.ReplicationSlot = type { i8, i8, i32, i8, i8, i32, i32, %struct.ReplicationSlotPersistentData, %struct.LWLock, %struct.ConditionVariable, i32, i64, i64, i64, i64, i64 }
%struct.ReplicationSlotPersistentData = type { %struct.nameData, i32, i32, i32, i32, i64, i32, i64, i64, i8, %struct.nameData, i8, i8 }
%struct.nameData = type { [64 x i8] }
%struct.LWLock = type { i16, %struct.pg_atomic_uint32, %struct.proclist_head }
%struct.pg_atomic_uint32 = type { i32 }
%struct.proclist_head = type { i32, i32 }
%struct.ConditionVariable = type { i8, %struct.proclist_head }
%union.LWLockPadded = type { %struct.LWLock, [112 x i8] }

@ReplicationSlotCtl = dso_local global ptr null, align 8
@max_replication_slots = dso_local global i32 10, align 4
@.str.6 = private unnamed_addr constant [7 x i8] c"slot.c\00", align 1
@MainLWLockArray = external global ptr, align 8
@__func__.ReplicationSlotsCountDBSlots = private unnamed_addr constant [29 x i8] c"ReplicationSlotsCountDBSlots\00", align 1

; Function Attrs: inlinehint nounwind uwtable
define internal i32 @tas(ptr noundef %0) #7 {
  %2 = alloca ptr, align 8
  %3 = alloca i8, align 1
  store ptr %0, ptr %2, align 8
  call void @llvm.lifetime.start.p0(i64 1, ptr %3) #12
  store i8 1, ptr %3, align 1
  %4 = load i8, ptr %3, align 1
  %5 = load ptr, ptr %2, align 8
  %6 = call i8 asm sideeffect "\09lock\09\09\09\0A\09xchgb\09$0,$1\09\0A", "=q,=*m,0,*m,~{memory},~{cc},~{dirflag},~{fpsr},~{flags}"(ptr elementtype(i8) %5, i8 %4, ptr elementtype(i8) %5) #12, !srcloc !13
  store i8 %6, ptr %3, align 1
  %7 = load i8, ptr %3, align 1
  %8 = zext i8 %7 to i32
  call void @llvm.lifetime.end.p0(i64 1, ptr %3) #12
  ret i32 %8
}

; Function Attrs: nounwind uwtable
define dso_local zeroext i1 @ReplicationSlotsCountDBSlots(i32 noundef %0, ptr noundef %1, ptr noundef %2) #0 {
  %4 = alloca i1, align 1
  %5 = alloca i32, align 4
  %6 = alloca ptr, align 8
  %7 = alloca ptr, align 8
  %8 = alloca i32, align 4
  %9 = alloca i32, align 4
  %10 = alloca ptr, align 8
  store i32 %0, ptr %5, align 4
  store ptr %1, ptr %6, align 8
  store ptr %2, ptr %7, align 8
  call void @llvm.lifetime.start.p0(i64 4, ptr %8) #12
  %11 = load ptr, ptr %7, align 8
  store i32 0, ptr %11, align 4
  %12 = load ptr, ptr %6, align 8
  store i32 0, ptr %12, align 4
  %13 = load i32, ptr @max_replication_slots, align 4
  %14 = icmp sle i32 %13, 0
  br i1 %14, label %15, label %16

15:                                               ; preds = %3
  store i1 false, ptr %4, align 1
  store i32 1, ptr %9, align 4
  br label %92

16:                                               ; preds = %3
  %17 = load ptr, ptr @MainLWLockArray, align 8
  %18 = getelementptr inbounds %union.LWLockPadded, ptr %17, i64 37
  %19 = call zeroext i1 @LWLockAcquire(ptr noundef %18, i32 noundef 1)
  store i32 0, ptr %8, align 4
  br label %20

20:                                               ; preds = %81, %16
  %21 = load i32, ptr %8, align 4
  %22 = load i32, ptr @max_replication_slots, align 4
  %23 = icmp slt i32 %21, %22
  br i1 %23, label %24, label %84

24:                                               ; preds = %20
  call void @llvm.lifetime.start.p0(i64 8, ptr %10) #12
  %25 = load ptr, ptr @ReplicationSlotCtl, align 8
  %26 = getelementptr inbounds nuw %struct.ReplicationSlotCtlData, ptr %25, i32 0, i32 0
  %27 = load i32, ptr %8, align 4
  %28 = sext i32 %27 to i64
  %29 = getelementptr inbounds [1 x %struct.ReplicationSlot], ptr %26, i64 0, i64 %28
  store ptr %29, ptr %10, align 8
  %30 = load ptr, ptr %10, align 8
  %31 = getelementptr inbounds nuw %struct.ReplicationSlot, ptr %30, i32 0, i32 1
  %32 = load i8, ptr %31, align 1, !range !4, !noundef !5
  %33 = trunc i8 %32 to i1
  br i1 %33, label %35, label %34

34:                                               ; preds = %24
  store i32 4, ptr %9, align 4
  br label %78

35:                                               ; preds = %24
  %36 = load ptr, ptr %10, align 8
  %37 = getelementptr inbounds nuw %struct.ReplicationSlot, ptr %36, i32 0, i32 7
  %38 = getelementptr inbounds nuw %struct.ReplicationSlotPersistentData, ptr %37, i32 0, i32 1
  %39 = load i32, ptr %38, align 8
  %40 = icmp ne i32 %39, 0
  br i1 %40, label %42, label %41

41:                                               ; preds = %35
  store i32 4, ptr %9, align 4
  br label %78

42:                                               ; preds = %35
  %43 = load ptr, ptr %10, align 8
  %44 = getelementptr inbounds nuw %struct.ReplicationSlot, ptr %43, i32 0, i32 7
  %45 = getelementptr inbounds nuw %struct.ReplicationSlotPersistentData, ptr %44, i32 0, i32 1
  %46 = load i32, ptr %45, align 8
  %47 = load i32, ptr %5, align 4
  %48 = icmp ne i32 %46, %47
  br i1 %48, label %49, label %50

49:                                               ; preds = %42
  store i32 4, ptr %9, align 4
  br label %78

50:                                               ; preds = %42
  %51 = load ptr, ptr %10, align 8
  %52 = getelementptr inbounds nuw %struct.ReplicationSlot, ptr %51, i32 0, i32 0
  %53 = call i32 @tas(ptr noundef %52)
  %54 = icmp ne i32 %53, 0
  br i1 %54, label %55, label %59

55:                                               ; preds = %50
  %56 = load ptr, ptr %10, align 8
  %57 = getelementptr inbounds nuw %struct.ReplicationSlot, ptr %56, i32 0, i32 0
  %58 = call i32 @s_lock(ptr noundef %57, ptr noundef @.str.6, i32 noundef 1275, ptr noundef @__func__.ReplicationSlotsCountDBSlots)
  br label %60

59:                                               ; preds = %50
  br label %60

60:                                               ; preds = %59, %55
  %61 = load ptr, ptr %6, align 8
  %62 = load i32, ptr %61, align 4
  %63 = add i32 %62, 1
  store i32 %63, ptr %61, align 4
  %64 = load ptr, ptr %10, align 8
  %65 = getelementptr inbounds nuw %struct.ReplicationSlot, ptr %64, i32 0, i32 2
  %66 = load i32, ptr %65, align 4
  %67 = icmp ne i32 %66, 0
  br i1 %67, label %68, label %72

68:                                               ; preds = %60
  %69 = load ptr, ptr %7, align 8
  %70 = load i32, ptr %69, align 4
  %71 = add i32 %70, 1
  store i32 %71, ptr %69, align 4
  br label %72

72:                                               ; preds = %68, %60
  br label %73

73:                                               ; preds = %72
  call void asm sideeffect "", "~{memory},~{dirflag},~{fpsr},~{flags}"() #12, !srcloc !36
  %74 = load ptr, ptr %10, align 8
  %75 = getelementptr inbounds nuw %struct.ReplicationSlot, ptr %74, i32 0, i32 0
  store i8 0, ptr %75, align 8
  br label %76

76:                                               ; preds = %73
  br label %77

77:                                               ; preds = %76
  store i32 0, ptr %9, align 4
  br label %78

78:                                               ; preds = %77, %49, %41, %34
  call void @llvm.lifetime.end.p0(i64 8, ptr %10) #12
  %79 = load i32, ptr %9, align 4
  switch i32 %79, label %94 [
    i32 0, label %80
    i32 4, label %81
  ]

80:                                               ; preds = %78
  br label %81

81:                                               ; preds = %80, %78
  %82 = load i32, ptr %8, align 4
  %83 = add i32 %82, 1
  store i32 %83, ptr %8, align 4
  br label %20, !llvm.loop !37

84:                                               ; preds = %20
  %85 = load ptr, ptr @MainLWLockArray, align 8
  %86 = getelementptr inbounds %union.LWLockPadded, ptr %85, i64 37
  call void @LWLockRelease(ptr noundef %86)
  %87 = load ptr, ptr %6, align 8
  %88 = load i32, ptr %87, align 4
  %89 = icmp sgt i32 %88, 0
  br i1 %89, label %90, label %91

90:                                               ; preds = %84
  store i1 true, ptr %4, align 1
  store i32 1, ptr %9, align 4
  br label %92

91:                                               ; preds = %84
  store i1 false, ptr %4, align 1
  store i32 1, ptr %9, align 4
  br label %92

92:                                               ; preds = %91, %90, %15
  call void @llvm.lifetime.end.p0(i64 4, ptr %8) #12
  %93 = load i1, ptr %4, align 1
  ret i1 %93

94:                                               ; preds = %78
  unreachable
}