; Function Attrs: nounwind uwtable
define dso_local zeroext i1 @ReplicationSlotsCountDBSlots(i32 noundef %0, ptr noundef captures(none) initializes((0, 4)) %1, ptr noundef captures(none) initializes((0, 4)) %2) local_unnamed_addr #0 {
  store i32 0, ptr %2, align 4
  store i32 0, ptr %1, align 4
  %4 = load i32, ptr @max_replication_slots, align 4
  %5 = icmp slt i32 %4, 1
  br i1 %5, label %43, label %6

6:                                                ; preds = %3
  %7 = load ptr, ptr @MainLWLockArray, align 8
  %8 = getelementptr inbounds nuw i8, ptr %7, i64 4736
  %9 = tail call zeroext i1 @LWLockAcquire(ptr noundef nonnull %8, i32 noundef 1) #17
  %10 = load i32, ptr @max_replication_slots, align 4
  %11 = icmp sgt i32 %10, 0
  br i1 %11, label %.lr.ph.preheader, label %._crit_edge

.lr.ph.preheader:                                 ; preds = %6
  %.pre23 = load ptr, ptr @ReplicationSlotCtl, align 8
  br label %.lr.ph

.lr.ph:                                           ; preds = %.lr.ph.preheader, %34
  %12 = phi i32 [ %10, %.lr.ph.preheader ], [ %35, %34 ]
  %13 = phi ptr [ %.pre23, %.lr.ph.preheader ], [ %36, %34 ]
  %indvars.iv = phi i64 [ 0, %.lr.ph.preheader ], [ %indvars.iv.next, %34 ]
  %14 = getelementptr inbounds nuw [1 x %struct.ReplicationSlot], ptr %13, i64 0, i64 %indvars.iv
  %15 = getelementptr inbounds nuw i8, ptr %14, i64 1
  %16 = load i8, ptr %15, align 1, !range !4, !noundef !5
  %17 = trunc nuw i8 %16 to i1
  br i1 %17, label %18, label %34

18:                                               ; preds = %.lr.ph
  %19 = getelementptr inbounds nuw i8, ptr %14, i64 88
  %20 = load i32, ptr %19, align 8
  %.not = icmp ne i32 %20, 0
  %.not18 = icmp eq i32 %20, %0
  %or.cond = and i1 %.not, %.not18
  br i1 %or.cond, label %21, label %34

21:                                               ; preds = %18
  %22 = tail call i8 asm sideeffect "\09lock\09\09\09\0A\09xchgb\09$0,$1\09\0A", "=q,=*m,0,*m,~{memory},~{cc},~{dirflag},~{fpsr},~{flags}"(ptr nonnull elementtype(i8) %14, i8 1, ptr nonnull elementtype(i8) %14) #17, !srcloc !11
  %.not19 = icmp eq i8 %22, 0
  br i1 %.not19, label %25, label %23

23:                                               ; preds = %21
  %24 = tail call i32 @s_lock(ptr noundef nonnull %14, ptr noundef nonnull @.str.6, i32 noundef 1275, ptr noundef nonnull @__func__.ReplicationSlotsCountDBSlots) #17
  br label %25

25:                                               ; preds = %21, %23
  %26 = load i32, ptr %1, align 4
  %27 = add i32 %26, 1
  store i32 %27, ptr %1, align 4
  %28 = getelementptr inbounds nuw i8, ptr %14, i64 4
  %29 = load i32, ptr %28, align 4
  %.not20 = icmp eq i32 %29, 0
  br i1 %.not20, label %33, label %30

30:                                               ; preds = %25
  %31 = load i32, ptr %2, align 4
  %32 = add i32 %31, 1
  store i32 %32, ptr %2, align 4
  br label %33

33:                                               ; preds = %25, %30
  tail call void asm sideeffect "", "~{memory},~{dirflag},~{fpsr},~{flags}"() #17, !srcloc !35
  store i8 0, ptr %14, align 8
  %.pre = load ptr, ptr @ReplicationSlotCtl, align 8
  %.pre24 = load i32, ptr @max_replication_slots, align 4
  br label %34

34:                                               ; preds = %18, %.lr.ph, %33
  %35 = phi i32 [ %12, %18 ], [ %12, %.lr.ph ], [ %.pre24, %33 ]
  %36 = phi ptr [ %13, %18 ], [ %13, %.lr.ph ], [ %.pre, %33 ]
  %indvars.iv.next = add nuw nsw i64 %indvars.iv, 1
  %37 = sext i32 %35 to i64
  %38 = icmp slt i64 %indvars.iv.next, %37
  br i1 %38, label %.lr.ph, label %._crit_edge, !llvm.loop !36

._crit_edge:                                      ; preds = %34, %6
  %39 = load ptr, ptr @MainLWLockArray, align 8
  %40 = getelementptr inbounds nuw i8, ptr %39, i64 4736
  tail call void @LWLockRelease(ptr noundef nonnull %40) #17
  %41 = load i32, ptr %1, align 4
  %42 = icmp sgt i32 %41, 0
  br label %43

43:                                               ; preds = %._crit_edge, %3
  %.0 = phi i1 [ false, %3 ], [ %42, %._crit_edge ]
  ret i1 %.0
}